target datalayout = "e-m:e-p270:32:32-p271:32:32-p272:64:64-i64:64-i128:128-f80:128-n8:16:32:64-S128"
target triple = "x86_64-pc-linux-gnu"

%struct.location = type { i32, i32 }
%struct.block = type { ptr, ptr }
%struct.inst = type { ptr, ptr, i32, %struct.anon, ptr, %struct.location, ptr, ptr, i32, i32, i32, i32, %struct.block, %struct.block, ptr, i32 }
%struct.anon = type { i16, ptr, %struct.jv, ptr }
%struct.jv = type { i8, i8, i16, i32, %union.anon }
%union.anon = type { ptr }

; Function Attrs: nounwind uwtable
define internal void @block_mark_referenced(ptr %0, ptr %1) #0 {
  %3 = alloca %struct.block, align 8
  %4 = alloca i32, align 4
  %5 = alloca ptr, align 8
  %6 = getelementptr inbounds nuw { ptr, ptr }, ptr %3, i32 0, i32 0
  store ptr %0, ptr %6, align 8
  %7 = getelementptr inbounds nuw { ptr, ptr }, ptr %3, i32 0, i32 1
  store ptr %1, ptr %7, align 8
  call void @llvm.lifetime.start.p0(i64 4, ptr %4) #7
  store i32 0, ptr %4, align 4, !tbaa !26
  call void @llvm.lifetime.start.p0(i64 8, ptr %5) #7
  %8 = getelementptr inbounds nuw %struct.block, ptr %3, i32 0, i32 1
  %9 = load ptr, ptr %8, align 8, !tbaa !10
  store ptr %9, ptr %5, align 8, !tbaa !13
  br label %10

10:                                               ; preds = %58, %2
  %11 = load ptr, ptr %5, align 8, !tbaa !13
  %12 = icmp ne ptr %11, null
  br i1 %12, label %14, label %13

13:                                               ; preds = %10
  call void @llvm.lifetime.end.p0(i64 8, ptr %5) #7
  br label %62

14:                                               ; preds = %10
  %15 = load i32, ptr %4, align 4, !tbaa !26
  %16 = icmp ne i32 %15, 0
  br i1 %16, label %17, label %29

17:                                               ; preds = %14
  %18 = load ptr, ptr %5, align 8, !tbaa !13
  %19 = getelementptr inbounds nuw %struct.inst, ptr %18, i32 0, i32 6
  %20 = load ptr, ptr %19, align 8, !tbaa !35
  %21 = load ptr, ptr %5, align 8, !tbaa !13
  %22 = icmp eq ptr %20, %21
  br i1 %22, label %23, label %29

23:                                               ; preds = %17
  %24 = load ptr, ptr %5, align 8, !tbaa !13
  %25 = getelementptr inbounds nuw %struct.inst, ptr %24, i32 0, i32 9
  %26 = load i32, ptr %25, align 4, !tbaa !38
  %27 = icmp ne i32 %26, 0
  br i1 %27, label %29, label %28

28:                                               ; preds = %23
  br label %58

29:                                               ; preds = %23, %17, %14
  %30 = load ptr, ptr %5, align 8, !tbaa !13
  %31 = getelementptr inbounds nuw %struct.inst, ptr %30, i32 0, i32 2
  %32 = load i32, ptr %31, align 8, !tbaa !33
  %33 = icmp eq i32 %32, 35
  br i1 %33, label %34, label %35

34:                                               ; preds = %29
  store i32 1, ptr %4, align 4, !tbaa !26
  br label %35

35:                                               ; preds = %34, %29
  %36 = load ptr, ptr %5, align 8, !tbaa !13
  %37 = getelementptr inbounds nuw %struct.inst, ptr %36, i32 0, i32 6
  %38 = load ptr, ptr %37, align 8, !tbaa !35
  %39 = icmp ne ptr %38, null
  br i1 %39, label %40, label %45

40:                                               ; preds = %35
  %41 = load ptr, ptr %5, align 8, !tbaa !13
  %42 = getelementptr inbounds nuw %struct.inst, ptr %41, i32 0, i32 6
  %43 = load ptr, ptr %42, align 8, !tbaa !35
  %44 = getelementptr inbounds nuw %struct.inst, ptr %43, i32 0, i32 9
  store i32 1, ptr %44, align 4, !tbaa !38
  br label %45

45:                                               ; preds = %40, %35
  %46 = load ptr, ptr %5, align 8, !tbaa !13
  %47 = getelementptr inbounds nuw %struct.inst, ptr %46, i32 0, i32 13
  %48 = getelementptr inbounds nuw { ptr, ptr }, ptr %47, i32 0, i32 0
  %49 = load ptr, ptr %48, align 8
  %50 = getelementptr inbounds nuw { ptr, ptr }, ptr %47, i32 0, i32 1
  %51 = load ptr, ptr %50, align 8
  call void @block_mark_referenced(ptr %49, ptr %51)
  %52 = load ptr, ptr %5, align 8, !tbaa !13
  %53 = getelementptr inbounds nuw %struct.inst, ptr %52, i32 0, i32 12
  %54 = getelementptr inbounds nuw { ptr, ptr }, ptr %53, i32 0, i32 0
  %55 = load ptr, ptr %54, align 8
  %56 = getelementptr inbounds nuw { ptr, ptr }, ptr %53, i32 0, i32 1
  %57 = load ptr, ptr %56, align 8
  call void @block_mark_referenced(ptr %55, ptr %57)
  br label %58

58:                                               ; preds = %45, %28
  %59 = load ptr, ptr %5, align 8, !tbaa !13
  %60 = getelementptr inbounds nuw %struct.inst, ptr %59, i32 0, i32 1
  %61 = load ptr, ptr %60, align 8, !tbaa !32
  store ptr %61, ptr %5, align 8, !tbaa !13
  br label %10, !llvm.loop !57

62:                                               ; preds = %13
  call void @llvm.lifetime.end.p0(i64 4, ptr %4) #7
  ret void
}