; Function Attrs: nofree nosync nounwind memory(readwrite, inaccessiblemem: none) uwtable
define internal fastcc void @block_mark_referenced(ptr readonly captures(address) %0) unnamed_addr #13 {
  %.not1 = icmp eq ptr %0, null
  br i1 %.not1, label %._crit_edge, label %.lr.ph

._crit_edge:                                      ; preds = %16, %1
  ret void

.lr.ph:                                           ; preds = %1, %16
  %.03 = phi ptr [ %18, %16 ], [ %0, %1 ]
  %.0102 = phi i32 [ %.1, %16 ], [ 0, %1 ]
  %.not12 = icmp ne i32 %.0102, 0
  %.phi.trans.insert = getelementptr inbounds nuw i8, ptr %.03, i64 80
  %.pre = load ptr, ptr %.phi.trans.insert, align 8, !tbaa !33
  %2 = icmp eq ptr %.pre, %.03
  %or.cond = select i1 %.not12, i1 %2, i1 false
  br i1 %or.cond, label %3, label %.lr.ph._crit_edge

3:                                                ; preds = %.lr.ph
  %4 = getelementptr inbounds nuw i8, ptr %.03, i64 100
  %5 = load i32, ptr %4, align 4, !tbaa !45
  %.not13 = icmp eq i32 %5, 0
  br i1 %.not13, label %16, label %.lr.ph._crit_edge

.lr.ph._crit_edge:                                ; preds = %.lr.ph, %3
  %6 = getelementptr inbounds nuw i8, ptr %.03, i64 16
  %7 = load i32, ptr %6, align 8, !tbaa !25
  %8 = icmp eq i32 %7, 35
  %spec.select = select i1 %8, i32 1, i32 %.0102
  %.not14 = icmp eq ptr %.pre, null
  br i1 %.not14, label %11, label %9

9:                                                ; preds = %.lr.ph._crit_edge
  %10 = getelementptr inbounds nuw i8, ptr %.pre, i64 100
  store i32 1, ptr %10, align 4, !tbaa !45
  br label %11

11:                                               ; preds = %9, %.lr.ph._crit_edge
  %12 = getelementptr inbounds nuw i8, ptr %.03, i64 136
  %13 = load ptr, ptr %12, align 8
  tail call fastcc void @block_mark_referenced(ptr %13)
  %14 = getelementptr inbounds nuw i8, ptr %.03, i64 120
  %15 = load ptr, ptr %14, align 8
  tail call fastcc void @block_mark_referenced(ptr %15)
  br label %16

16:                                               ; preds = %3, %11
  %.1 = phi i32 [ %spec.select, %11 ], [ 1, %3 ]
  %17 = getelementptr inbounds nuw i8, ptr %.03, i64 8
  %18 = load ptr, ptr %17, align 8, !tbaa !34
  %.not = icmp eq ptr %18, null
  br i1 %.not, label %._crit_edge, label %.lr.ph, !llvm.loop !47
}